target datalayout = "e-m:e-p270:32:32-p271:32:32-p272:64:64-i64:64-i128:128-f80:128-n8:16:32:64-S128"
target triple = "x86_64-pc-linux-gnu"

%"class.cv::Rect_" = type { float, float, float, float }

; Function Attrs: inlinehint mustprogress nounwind uwtable
define linkonce_odr noundef float @_ZSt4sqrtf(float noundef %0) #4 comdat {
  %2 = alloca float, align 4
  store float %0, ptr %2, align 4, !tbaa !26
  %3 = load float, ptr %2, align 4, !tbaa !26
  %4 = call float @sqrtf(float noundef %3) #15, !tbaa !24
  ret float %4
}

; Function Attrs: inlinehint mustprogress nounwind uwtable
define linkonce_odr noundef nonnull align 4 dereferenceable(4) ptr @_ZSt3minIfERKT_S2_S2_(ptr noundef nonnull align 4 dereferenceable(4) %0, ptr noundef nonnull align 4 dereferenceable(4) %1) #4 comdat {
  %3 = alloca ptr, align 8
  %4 = alloca ptr, align 8
  %5 = alloca ptr, align 8
  store ptr %0, ptr %4, align 8, !tbaa !99
  store ptr %1, ptr %5, align 8, !tbaa !99
  %6 = load ptr, ptr %5, align 8, !tbaa !99
  %7 = load float, ptr %6, align 4, !tbaa !26
  %8 = load ptr, ptr %4, align 8, !tbaa !99
  %9 = load float, ptr %8, align 4, !tbaa !26
  %10 = fcmp olt float %7, %9
  br i1 %10, label %11, label %13

11:                                               ; preds = %2
  %12 = load ptr, ptr %5, align 8, !tbaa !99
  store ptr %12, ptr %3, align 8
  br label %15

13:                                               ; preds = %2
  %14 = load ptr, ptr %4, align 8, !tbaa !99
  store ptr %14, ptr %3, align 8
  br label %15

15:                                               ; preds = %13, %11
  %16 = load ptr, ptr %3, align 8
  ret ptr %16
}

; Function Attrs: mustprogress uwtable
define hidden noundef float @_ZN3vas2ot17ObjectsAssociator24NormalizedCenterDistanceERKN2cv5Rect_IfEES6_(ptr noundef nonnull align 4 dereferenceable(16) %0, ptr noundef nonnull align 4 dereferenceable(16) %1) #2 align 2 {
  %3 = alloca ptr, align 8
  %4 = alloca ptr, align 8
  %5 = alloca float, align 4
  %6 = alloca float, align 4
  %7 = alloca float, align 4
  %8 = alloca float, align 4
  %9 = alloca float, align 4
  %10 = alloca float, align 4
  %11 = alloca float, align 4
  %12 = alloca float, align 4
  %13 = alloca float, align 4
  store ptr %0, ptr %3, align 8, !tbaa !108
  store ptr %1, ptr %4, align 8, !tbaa !108
  call void @llvm.lifetime.start.p0(i64 4, ptr %5) #15
  call void @llvm.lifetime.start.p0(i64 4, ptr %6) #15
  %14 = load ptr, ptr %3, align 8, !tbaa !108
  %15 = getelementptr inbounds nuw %"class.cv::Rect_", ptr %14, i32 0, i32 2
  %16 = load float, ptr %15, align 4, !tbaa !109
  %17 = load ptr, ptr %3, align 8, !tbaa !108
  %18 = getelementptr inbounds nuw %"class.cv::Rect_", ptr %17, i32 0, i32 3
  %19 = load float, ptr %18, align 4, !tbaa !110
  %20 = fadd float %16, %19
  %21 = fmul float 5.000000e-01, %20
  store float %21, ptr %6, align 4, !tbaa !26
  call void @llvm.lifetime.start.p0(i64 4, ptr %7) #15
  %22 = load ptr, ptr %4, align 8, !tbaa !108
  %23 = getelementptr inbounds nuw %"class.cv::Rect_", ptr %22, i32 0, i32 2
  %24 = load float, ptr %23, align 4, !tbaa !109
  %25 = load ptr, ptr %4, align 8, !tbaa !108
  %26 = getelementptr inbounds nuw %"class.cv::Rect_", ptr %25, i32 0, i32 3
  %27 = load float, ptr %26, align 4, !tbaa !110
  %28 = fadd float %24, %27
  %29 = fmul float 5.000000e-01, %28
  store float %29, ptr %7, align 4, !tbaa !26
  %30 = call noundef nonnull align 4 dereferenceable(4) ptr @_ZSt3minIfERKT_S2_S2_(ptr noundef nonnull align 4 dereferenceable(4) %6, ptr noundef nonnull align 4 dereferenceable(4) %7)
  %31 = load float, ptr %30, align 4, !tbaa !26
  call void @llvm.lifetime.end.p0(i64 4, ptr %7) #15
  call void @llvm.lifetime.end.p0(i64 4, ptr %6) #15
  store float %31, ptr %5, align 4, !tbaa !26
  call void @llvm.lifetime.start.p0(i64 4, ptr %8) #15
  %32 = load ptr, ptr %3, align 8, !tbaa !108
  %33 = getelementptr inbounds nuw %"class.cv::Rect_", ptr %32, i32 0, i32 0
  %34 = load float, ptr %33, align 4, !tbaa !111
  %35 = load ptr, ptr %3, align 8, !tbaa !108
  %36 = getelementptr inbounds nuw %"class.cv::Rect_", ptr %35, i32 0, i32 2
  %37 = load float, ptr %36, align 4, !tbaa !109
  %38 = call float @llvm.fmuladd.f32(float 5.000000e-01, float %37, float %34)
  store float %38, ptr %8, align 4, !tbaa !26
  call void @llvm.lifetime.start.p0(i64 4, ptr %9) #15
  %39 = load ptr, ptr %3, align 8, !tbaa !108
  %40 = getelementptr inbounds nuw %"class.cv::Rect_", ptr %39, i32 0, i32 1
  %41 = load float, ptr %40, align 4, !tbaa !112
  %42 = load ptr, ptr %3, align 8, !tbaa !108
  %43 = getelementptr inbounds nuw %"class.cv::Rect_", ptr %42, i32 0, i32 3
  %44 = load float, ptr %43, align 4, !tbaa !110
  %45 = call float @llvm.fmuladd.f32(float 5.000000e-01, float %44, float %41)
  store float %45, ptr %9, align 4, !tbaa !26
  call void @llvm.lifetime.start.p0(i64 4, ptr %10) #15
  %46 = load ptr, ptr %4, align 8, !tbaa !108
  %47 = getelementptr inbounds nuw %"class.cv::Rect_", ptr %46, i32 0, i32 0
  %48 = load float, ptr %47, align 4, !tbaa !111
  %49 = load ptr, ptr %4, align 8, !tbaa !108
  %50 = getelementptr inbounds nuw %"class.cv::Rect_", ptr %49, i32 0, i32 2
  %51 = load float, ptr %50, align 4, !tbaa !109
  %52 = call float @llvm.fmuladd.f32(float 5.000000e-01, float %51, float %48)
  store float %52, ptr %10, align 4, !tbaa !26
  call void @llvm.lifetime.start.p0(i64 4, ptr %11) #15
  %53 = load ptr, ptr %4, align 8, !tbaa !108
  %54 = getelementptr inbounds nuw %"class.cv::Rect_", ptr %53, i32 0, i32 1
  %55 = load float, ptr %54, align 4, !tbaa !112
  %56 = load ptr, ptr %4, align 8, !tbaa !108
  %57 = getelementptr inbounds nuw %"class.cv::Rect_", ptr %56, i32 0, i32 3
  %58 = load float, ptr %57, align 4, !tbaa !110
  %59 = call float @llvm.fmuladd.f32(float 5.000000e-01, float %58, float %55)
  store float %59, ptr %11, align 4, !tbaa !26
  call void @llvm.lifetime.start.p0(i64 4, ptr %12) #15
  %60 = load float, ptr %10, align 4, !tbaa !26
  %61 = load float, ptr %8, align 4, !tbaa !26
  %62 = fsub float %60, %61
  %63 = load float, ptr %5, align 4, !tbaa !26
  %64 = fdiv float %62, %63
  store float %64, ptr %12, align 4, !tbaa !26
  call void @llvm.lifetime.start.p0(i64 4, ptr %13) #15
  %65 = load float, ptr %11, align 4, !tbaa !26
  %66 = load float, ptr %9, align 4, !tbaa !26
  %67 = fsub float %65, %66
  %68 = load float, ptr %5, align 4, !tbaa !26
  %69 = fdiv float %67, %68
  store float %69, ptr %13, align 4, !tbaa !26
  %70 = load float, ptr %12, align 4, !tbaa !26
  %71 = load float, ptr %12, align 4, !tbaa !26
  %72 = load float, ptr %13, align 4, !tbaa !26
  %73 = load float, ptr %13, align 4, !tbaa !26
  %74 = fmul float %72, %73
  %75 = call float @llvm.fmuladd.f32(float %70, float %71, float %74)
  %76 = call noundef float @_ZSt4sqrtf(float noundef %75)
  call void @llvm.lifetime.end.p0(i64 4, ptr %13) #15
  call void @llvm.lifetime.end.p0(i64 4, ptr %12) #15
  call void @llvm.lifetime.end.p0(i64 4, ptr %11) #15
  call void @llvm.lifetime.end.p0(i64 4, ptr %10) #15
  call void @llvm.lifetime.end.p0(i64 4, ptr %9) #15
  call void @llvm.lifetime.end.p0(i64 4, ptr %8) #15
  call void @llvm.lifetime.end.p0(i64 4, ptr %5) #15
  ret float %76
}