; Function Attrs: mustprogress nofree norecurse nosync nounwind willreturn memory(argmem: read) uwtable
define hidden noundef float @_ZN3vas2ot17ObjectsAssociator24NormalizedCenterDistanceERKN2cv5Rect_IfEES6_(ptr noundef nonnull readonly align 4 captures(none) dereferenceable(16) %0, ptr noundef nonnull readonly align 4 captures(none) dereferenceable(16) %1) local_unnamed_addr #6 align 2 {
  %3 = getelementptr inbounds nuw i8, ptr %0, i64 8
  %4 = load float, ptr %3, align 4, !tbaa !75
  %5 = getelementptr inbounds nuw i8, ptr %0, i64 12
  %6 = load float, ptr %5, align 4, !tbaa !76
  %7 = fadd float %4, %6
  %8 = fmul float %7, 5.000000e-01
  %9 = getelementptr inbounds nuw i8, ptr %1, i64 8
  %10 = load float, ptr %9, align 4, !tbaa !75
  %11 = getelementptr inbounds nuw i8, ptr %1, i64 12
  %12 = load float, ptr %11, align 4, !tbaa !76
  %13 = fadd float %10, %12
  %14 = fmul float %13, 5.000000e-01
  %15 = fcmp olt float %14, %8
  %.sroa.speculated = select i1 %15, float %14, float %8
  %16 = load float, ptr %0, align 4, !tbaa !77
  %17 = tail call float @llvm.fmuladd.f32(float %4, float 5.000000e-01, float %16)
  %18 = getelementptr inbounds nuw i8, ptr %0, i64 4
  %19 = load float, ptr %18, align 4, !tbaa !78
  %20 = tail call float @llvm.fmuladd.f32(float %6, float 5.000000e-01, float %19)
  %21 = load float, ptr %1, align 4, !tbaa !77
  %22 = tail call float @llvm.fmuladd.f32(float %10, float 5.000000e-01, float %21)
  %23 = getelementptr inbounds nuw i8, ptr %1, i64 4
  %24 = load float, ptr %23, align 4, !tbaa !78
  %25 = tail call float @llvm.fmuladd.f32(float %12, float 5.000000e-01, float %24)
  %26 = fsub float %22, %17
  %27 = fdiv float %26, %.sroa.speculated
  %28 = fsub float %25, %20
  %29 = fdiv float %28, %.sroa.speculated
  %30 = fmul float %29, %29
  %31 = tail call float @llvm.fmuladd.f32(float %27, float %27, float %30)
  %sqrt = tail call float @llvm.sqrt.f32(float %31)
  ret float %sqrt
}